---
triple:          'arm64-apple-darwin'
binary-path:     '/Users/lanluo/Desktop/vscode/operation_system/tmult_ok'
relocations:
  - { offsetInCU: 0x2EDA, offset: 0x2EDA, size: 0x8, addend: 0x0, symName: __ZNSt3__114__copy_alignedB7v160006INS_8__bitsetILm1ELm64EEELb0EEENS_14__bit_iteratorIT_Lb0EXLi0EEEENS3_IS4_XT0_EXLi0EEEES6_S5_, symObjAddr: 0x704, symBinAddr: 0x100002A2C, symSize: 0x278 }
  - { offsetInCU: 0x33EB, offset: 0x33EB, size: 0x8, addend: 0x0, symName: __ZNSt3__16copy_nB7v160006IPmmS1_EENS_9enable_ifIXsr33__is_cpp17_random_access_iteratorIT_EE5valueET1_E4typeES3_T0_S4_, symObjAddr: 0xF64, symBinAddr: 0x10000328C, symSize: 0x44 }
  - { offsetInCU: 0x3492, offset: 0x3492, size: 0x8, addend: 0x0, symName: __ZNSt3__116__copy_unalignedB7v160006INS_8__bitsetILm1ELm64EEELb0EEENS_14__bit_iteratorIT_Lb0EXLi0EEEENS3_IS4_XT0_EXLi0EEEES6_S5_, symObjAddr: 0x9B0, symBinAddr: 0x100002CD8, symSize: 0x540 }
  - { offsetInCU: 0x3610, offset: 0x3610, size: 0x8, addend: 0x0, symName: __ZNSt3__113__fill_n_trueB7v160006INS_8__bitsetILm1ELm64EEEEEvNS_14__bit_iteratorIT_Lb0EXLi0EEEENS4_9size_typeE, symObjAddr: 0x15D4, symBinAddr: 0x1000038FC, symSize: 0x160 }
  - { offsetInCU: 0x36D5, offset: 0x36D5, size: 0x8, addend: 0x0, symName: __ZNSt3__114__fill_n_falseB7v160006INS_8__bitsetILm1ELm64EEEEEvNS_14__bit_iteratorIT_Lb0EXLi0EEEENS4_9size_typeE, symObjAddr: 0x1734, symBinAddr: 0x100003A5C, symSize: 0x15C }
  - { offsetInCU: 0x51FF, offset: 0x51FF, size: 0x8, addend: 0x0, symName: __ZNSt3__14endlB7v160006IcNS_11char_traitsIcEEEERNS_13basic_ostreamIT_T0_EES7_, symObjAddr: 0x2DC, symBinAddr: 0x100002604, symSize: 0x58 }
  - { offsetInCU: 0x523F, offset: 0x523F, size: 0x8, addend: 0x0, symName: __ZNSt3__13minB7v160006ImEERKT_S3_S3_, symObjAddr: 0x468, symBinAddr: 0x100002790, symSize: 0x2C }
  - { offsetInCU: 0x5282, offset: 0x5282, size: 0x8, addend: 0x0, symName: __ZNSt3__14copyB7v160006INS_8__bitsetILm1ELm64EEELb0EEENS_14__bit_iteratorIT_Lb0EXLi0EEEENS3_IS4_XT0_EXLi0EEEES6_S5_, symObjAddr: 0x4A0, symBinAddr: 0x1000027C8, symSize: 0xE8 }
  - { offsetInCU: 0x52E4, offset: 0x52E4, size: 0x8, addend: 0x0, symName: __ZNSt3__16fill_nB7v160006INS_8__bitsetILm1ELm64EEEEEvNS_14__bit_iteratorIT_Lb0EXLi0EEEENS4_9size_typeEb, symObjAddr: 0x5E8, symBinAddr: 0x100002910, symSize: 0x94 }
  - { offsetInCU: 0x5336, offset: 0x5336, size: 0x8, addend: 0x0, symName: __ZNSt3__13minB7v160006ImNS_6__lessImmEEEERKT_S5_S5_T0_, symObjAddr: 0x67C, symBinAddr: 0x1000029A4, symSize: 0x54 }
  - { offsetInCU: 0x53CB, offset: 0x53CB, size: 0x8, addend: 0x0, symName: __ZNSt3__1miB7v160006ERKNS_14__bit_iteratorINS_8__bitsetILm1ELm64EEELb0ELm0EEES5_, symObjAddr: 0xEF0, symBinAddr: 0x100003218, symSize: 0x48 }
  - { offsetInCU: 0x5408, offset: 0x5408, size: 0x8, addend: 0x0, symName: __ZNSt3__13minB7v160006IlEERKT_S3_S3_, symObjAddr: 0xF38, symBinAddr: 0x100003260, symSize: 0x2C }
  - { offsetInCU: 0x544B, offset: 0x544B, size: 0x8, addend: 0x0, symName: __ZNSt3__112__to_addressB7v160006ImEEPT_S2_, symObjAddr: 0xFA8, symBinAddr: 0x1000032D0, symSize: 0x14 }
  - { offsetInCU: 0x5480, offset: 0x5480, size: 0x8, addend: 0x0, symName: __ZNSt3__13minB7v160006IlNS_6__lessIllEEEERKT_S5_S5_T0_, symObjAddr: 0xFBC, symBinAddr: 0x1000032E4, symSize: 0x54 }
  - { offsetInCU: 0x5515, offset: 0x5515, size: 0x8, addend: 0x0, symName: __ZNSt3__14copyB7v160006IPmS1_EET0_T_S3_S2_, symObjAddr: 0x1044, symBinAddr: 0x10000336C, symSize: 0x40 }
  - { offsetInCU: 0x556F, offset: 0x556F, size: 0x8, addend: 0x0, symName: __ZNSt3__16__copyB7v160006INS_17_ClassicAlgPolicyEPmS2_S2_EENS_4pairIT0_T2_EES4_T1_S5_, symObjAddr: 0x1084, symBinAddr: 0x1000033AC, symSize: 0x44 }
  - { offsetInCU: 0x55DB, offset: 0x55DB, size: 0x8, addend: 0x0, symName: __ZNSt3__123__dispatch_copy_or_moveB7v160006INS_17_ClassicAlgPolicyENS_11__copy_loopIS1_EENS_14__copy_trivialEPmS5_S5_EENS_4pairIT2_T4_EES7_T3_S8_, symObjAddr: 0x10C8, symBinAddr: 0x1000033F0, symSize: 0x44 }
  - { offsetInCU: 0x5659, offset: 0x5659, size: 0x8, addend: 0x0, symName: __ZNSt3__121__unwrap_and_dispatchB7v160006INS_10__overloadINS_11__copy_loopINS_17_ClassicAlgPolicyEEENS_14__copy_trivialEEEPmS7_S7_Li0EEENS_4pairIT0_T2_EES9_T1_SA_, symObjAddr: 0x110C, symBinAddr: 0x100003434, symSize: 0xB4 }
  - { offsetInCU: 0x56E7, offset: 0x56E7, size: 0x8, addend: 0x0, symName: __ZNSt3__114__unwrap_rangeB7v160006IPmS1_EENS_4pairIT0_S3_EET_S5_, symObjAddr: 0x11C0, symBinAddr: 0x1000034E8, symSize: 0x60 }
  - { offsetInCU: 0x587C, offset: 0x587C, size: 0x8, addend: 0x0, symName: __ZNSt3__113__unwrap_iterB7v160006IPmNS_18__unwrap_iter_implIS1_Lb1EEELi0EEEDTclsrT0_8__unwrapclsr3stdE7declvalIT_EEEES5_, symObjAddr: 0x1268, symBinAddr: 0x100003590, symSize: 0x24 }
  - { offsetInCU: 0x58C0, offset: 0x58C0, size: 0x8, addend: 0x0, symName: __ZNSt3__19make_pairB7v160006IPmS1_EENS_4pairINS_18__unwrap_ref_decayIT_E4typeENS3_IT0_E4typeEEEOS4_OS7_, symObjAddr: 0x128C, symBinAddr: 0x1000035B4, symSize: 0x38 }
  - { offsetInCU: 0x590F, offset: 0x590F, size: 0x8, addend: 0x0, symName: __ZNSt3__114__rewrap_rangeB7v160006IPmS1_EET_S2_T0_, symObjAddr: 0x12C4, symBinAddr: 0x1000035EC, symSize: 0x2C }
  - { offsetInCU: 0x595B, offset: 0x595B, size: 0x8, addend: 0x0, symName: __ZNSt3__113__rewrap_iterB7v160006IPmS1_NS_18__unwrap_iter_implIS1_Lb1EEEEET_S4_T0_, symObjAddr: 0x12F0, symBinAddr: 0x100003618, symSize: 0x3C }
  - { offsetInCU: 0x59B0, offset: 0x59B0, size: 0x8, addend: 0x0, symName: __ZNSt3__119__copy_trivial_implB7v160006ImmEENS_4pairIPT_PT0_EES3_S3_S5_, symObjAddr: 0x132C, symBinAddr: 0x100003654, symSize: 0x84 }
  - { offsetInCU: 0x5A18, offset: 0x5A18, size: 0x8, addend: 0x0, symName: __ZNSt3__19make_pairB7v160006IRPmS1_EENS_4pairINS_18__unwrap_ref_decayIT_E4typeENS4_IT0_E4typeEEEOS5_OS8_, symObjAddr: 0x13B0, symBinAddr: 0x1000036D8, symSize: 0x38 }
  - { offsetInCU: 0x5ABA, offset: 0x5ABA, size: 0x8, addend: 0x0, symName: __ZNSt3__16fill_nB7v160006IPmmmEET_S2_T0_RKT1_, symObjAddr: 0x1890, symBinAddr: 0x100003BB8, symSize: 0x44 }
  - { offsetInCU: 0x5B1D, offset: 0x5B1D, size: 0x8, addend: 0x0, symName: __ZNSt3__18__fill_nB7v160006IPmmmEET_S2_T0_RKT1_, symObjAddr: 0x18D4, symBinAddr: 0x100003BFC, symSize: 0x64 }
  - { offsetInCU: 0x5B80, offset: 0x5B80, size: 0x8, addend: 0x0, symName: __ZNSt3__121__convert_to_integralB7v160006Em, symObjAddr: 0x1938, symBinAddr: 0x100003C60, symSize: 0x14 }
  - { offsetInCU: 0x5BAC, offset: 0x5BAC, size: 0x8, addend: 0x0, symName: __ZNSt3__16fill_nB7v160006IPmmiEET_S2_T0_RKT1_, symObjAddr: 0x194C, symBinAddr: 0x100003C74, symSize: 0x44 }
  - { offsetInCU: 0x5C0F, offset: 0x5C0F, size: 0x8, addend: 0x0, symName: __ZNSt3__18__fill_nB7v160006IPmmiEET_S2_T0_RKT1_, symObjAddr: 0x1990, symBinAddr: 0x100003CB8, symSize: 0x64 }
  - { offsetInCU: 0x5C72, offset: 0x5C72, size: 0x8, addend: 0x0, symName: __ZNSt3__19use_facetB7v160006INS_5ctypeIcEEEERKT_RKNS_6localeE, symObjAddr: 0x1A90, symBinAddr: 0x100003DB8, symSize: 0x2C }
  - { offsetInCU: 0x8645, offset: 0x8645, size: 0x8, addend: 0x0, symName: __Z8tmult_okii, symObjAddr: 0x0, symBinAddr: 0x100002328, symSize: 0x68 }
  - { offsetInCU: 0x868D, offset: 0x868D, size: 0x8, addend: 0x0, symName: __Z9tmult_ok2ii, symObjAddr: 0x68, symBinAddr: 0x100002390, symSize: 0xF8 }
  - { offsetInCU: 0x8734, offset: 0x8734, size: 0x8, addend: 0x0, symName: __ZNSt3__16bitsetILm64EEC1B7v160006Ey, symObjAddr: 0x160, symBinAddr: 0x100002488, symSize: 0x34 }
  - { offsetInCU: 0x876B, offset: 0x876B, size: 0x8, addend: 0x0, symName: __ZNKSt3__16bitsetILm64EErsB7v160006Em, symObjAddr: 0x194, symBinAddr: 0x1000024BC, symSize: 0x3C }
  - { offsetInCU: 0x87AF, offset: 0x87AF, size: 0x8, addend: 0x0, symName: __ZNKSt3__16bitsetILm64EE8to_ulongB7v160006Ev, symObjAddr: 0x1D0, symBinAddr: 0x1000024F8, symSize: 0x24 }
  - { offsetInCU: 0x87D5, offset: 0x87D5, size: 0x8, addend: 0x0, symName: _main, symObjAddr: 0x1F4, symBinAddr: 0x10000251C, symSize: 0xBC }
  - { offsetInCU: 0x889B, offset: 0x889B, size: 0x8, addend: 0x0, symName: __ZNSt3__113basic_ostreamIcNS_11char_traitsIcEEElsB7v160006EPFRS3_S4_E, symObjAddr: 0x2B0, symBinAddr: 0x1000025D8, symSize: 0x2C }
  - { offsetInCU: 0x88CD, offset: 0x88CD, size: 0x8, addend: 0x0, symName: __ZNSt3__16bitsetILm64EEC2B7v160006Ey, symObjAddr: 0x334, symBinAddr: 0x10000265C, symSize: 0x34 }
  - { offsetInCU: 0x8904, offset: 0x8904, size: 0x8, addend: 0x0, symName: __ZNSt3__18__bitsetILm1ELm64EEC2Ey, symObjAddr: 0x368, symBinAddr: 0x100002690, symSize: 0x20 }
  - { offsetInCU: 0x893D, offset: 0x893D, size: 0x8, addend: 0x0, symName: __ZNSt3__16bitsetILm64EErSB7v160006Em, symObjAddr: 0x388, symBinAddr: 0x1000026B0, symSize: 0xE0 }
  - { offsetInCU: 0x8972, offset: 0x8972, size: 0x8, addend: 0x0, symName: __ZNSt3__18__bitsetILm1ELm64EE11__make_iterB7v160006Em, symObjAddr: 0x588, symBinAddr: 0x1000028B0, symSize: 0x60 }
  - { offsetInCU: 0x89B9, offset: 0x89B9, size: 0x8, addend: 0x0, symName: __ZNKSt3__16__lessImmEclB7v160006ERKmS3_, symObjAddr: 0x6D0, symBinAddr: 0x1000029F8, symSize: 0x34 }
  - { offsetInCU: 0x89F9, offset: 0x89F9, size: 0x8, addend: 0x0, symName: __ZNSt3__114__bit_iteratorINS_8__bitsetILm1ELm64EEELb0ELm0EEC1B7v160006ERKS3_, symObjAddr: 0x97C, symBinAddr: 0x100002CA4, symSize: 0x34 }
  - { offsetInCU: 0x8A44, offset: 0x8A44, size: 0x8, addend: 0x0, symName: __ZNKSt3__16__lessIllEclB7v160006ERKlS3_, symObjAddr: 0x1010, symBinAddr: 0x100003338, symSize: 0x34 }
  - { offsetInCU: 0x8AA7, offset: 0x8AA7, size: 0x8, addend: 0x0, symName: __ZNKSt3__114__copy_trivialclB7v160006ImmLi0EEENS_4pairIPT_PT0_EES4_S4_S6_, symObjAddr: 0x1220, symBinAddr: 0x100003548, symSize: 0x48 }
  - { offsetInCU: 0x8B17, offset: 0x8B17, size: 0x8, addend: 0x0, symName: __ZNSt3__14pairIPmS1_EC1B7v160006IRS1_S1_LPv0EEEOT_OT0_, symObjAddr: 0x13E8, symBinAddr: 0x100003710, symSize: 0x3C }
  - { offsetInCU: 0x8B73, offset: 0x8B73, size: 0x8, addend: 0x0, symName: __ZNSt3__14pairIPmS1_EC2B7v160006IRS1_S1_LPv0EEEOT_OT0_, symObjAddr: 0x1424, symBinAddr: 0x10000374C, symSize: 0x34 }
  - { offsetInCU: 0x8BCF, offset: 0x8BCF, size: 0x8, addend: 0x0, symName: __ZNSt3__118__unwrap_iter_implIPmLb1EE8__unwrapB7v160006ES1_, symObjAddr: 0x1458, symBinAddr: 0x100003780, symSize: 0x24 }
  - { offsetInCU: 0x8BF1, offset: 0x8BF1, size: 0x8, addend: 0x0, symName: __ZNSt3__14pairIPmS1_EC1B7v160006IS1_S1_LPv0EEEOT_OT0_, symObjAddr: 0x147C, symBinAddr: 0x1000037A4, symSize: 0x3C }
  - { offsetInCU: 0x8C4D, offset: 0x8C4D, size: 0x8, addend: 0x0, symName: __ZNSt3__14pairIPmS1_EC2B7v160006IS1_S1_LPv0EEEOT_OT0_, symObjAddr: 0x14B8, symBinAddr: 0x1000037E0, symSize: 0x34 }
  - { offsetInCU: 0x8CA9, offset: 0x8CA9, size: 0x8, addend: 0x0, symName: __ZNSt3__118__unwrap_iter_implIPmLb1EE8__rewrapB7v160006ES1_S1_, symObjAddr: 0x14EC, symBinAddr: 0x100003814, symSize: 0x50 }
  - { offsetInCU: 0x8CD9, offset: 0x8CD9, size: 0x8, addend: 0x0, symName: __ZNSt3__114__bit_iteratorINS_8__bitsetILm1ELm64EEELb0ELm0EEC2B7v160006ERKS3_, symObjAddr: 0x153C, symBinAddr: 0x100003864, symSize: 0x30 }
  - { offsetInCU: 0x8D10, offset: 0x8D10, size: 0x8, addend: 0x0, symName: __ZNSt3__114__bit_iteratorINS_8__bitsetILm1ELm64EEELb0ELm0EEC1B7v160006EPmj, symObjAddr: 0x156C, symBinAddr: 0x100003894, symSize: 0x3C }
  - { offsetInCU: 0x8D56, offset: 0x8D56, size: 0x8, addend: 0x0, symName: __ZNSt3__114__bit_iteratorINS_8__bitsetILm1ELm64EEELb0ELm0EEC2B7v160006EPmj, symObjAddr: 0x15A8, symBinAddr: 0x1000038D0, symSize: 0x2C }
  - { offsetInCU: 0x8D9C, offset: 0x8D9C, size: 0x8, addend: 0x0, symName: __ZNKSt3__18__bitsetILm1ELm64EE8to_ulongEv, symObjAddr: 0x19F4, symBinAddr: 0x100003D1C, symSize: 0x18 }
  - { offsetInCU: 0x8DC2, offset: 0x8DC2, size: 0x8, addend: 0x0, symName: __ZNKSt3__19basic_iosIcNS_11char_traitsIcEEE5widenB7v160006Ec, symObjAddr: 0x1A0C, symBinAddr: 0x100003D34, symSize: 0x84 }
  - { offsetInCU: 0x8E2E, offset: 0x8E2E, size: 0x8, addend: 0x0, symName: __ZNKSt3__15ctypeIcE5widenB7v160006Ec, symObjAddr: 0x1ABC, symBinAddr: 0x100003DE4, symSize: 0x38 }
...
